EXPORTS
    _ZN13adamantengine12gameobject_t10SetUseTimeERKb @1
    _ZN13adamantengine12gameobject_t10UseCleanupEv @2
    _ZN13adamantengine12gameobject_t11OnCollisionE10ECollision @3
    _ZN13adamantengine12gameobject_t11SetPositionERK7pos3i_t @4
    _ZN13adamantengine12gameobject_t11SetUseEventERKb @5
    _ZN13adamantengine12gameobject_t11SetVelocityERK7pos2i_t @6
    _ZN13adamantengine12gameobject_t12MovePositionERK7pos3i_t @7
    _ZN13adamantengine12gameobject_t12MoveVelocityERK7pos2i_t @8
    _ZN13adamantengine12gameobject_t12SetDimensionERK7pos2i_t @9
    _ZN13adamantengine12gameobject_t12SetUseRenderERKb @10
    _ZN13adamantengine12gameobject_t12SetUseUpdateERKb @11
    _ZN13adamantengine12gameobject_t12UseCollisionEv @12
    _ZN13adamantengine12gameobject_t13SetUseCleanupERKb @13
    _ZN13adamantengine12gameobject_t15SetUseCollisionERKb @14
    _ZN13adamantengine12gameobject_t6RenderEv @15
    _ZN13adamantengine12gameobject_t6UpdateEv @16
    _ZN13adamantengine12gameobject_t7CleanupEv @17
    _ZN13adamantengine12gameobject_t7OnInputERK7pos2i_t @18
    _ZN13adamantengine12gameobject_t7UseTimeEv @19
    _ZN13adamantengine12gameobject_t8PositionEv @20
    _ZN13adamantengine12gameobject_t8UseEventEv @21
    _ZN13adamantengine12gameobject_t8VelocityEv @22
    _ZN13adamantengine12gameobject_t9DimensionEv @23
    _ZN13adamantengine12gameobject_t9UseRenderEv @24
    _ZN13adamantengine12gameobject_t9UseUpdateEv @25
    _ZN13adamantengine12gameobject_tC1EP7pos3i_tP7pos2i_tP6rect_t @26
    _ZN13adamantengine12gameobject_tC2EP7pos3i_tP7pos2i_tP6rect_t @27
    _ZN13adamantengine12gameobject_tD0Ev @28
    _ZN13adamantengine12gameobject_tD1Ev @29
    _ZN13adamantengine12gameobject_tD2Ev @30
    _ZN13adamantengine18gameobject_array_tC1Ev @31
    _ZN13adamantengine18gameobject_array_tD1Ev @32
    _ZN13adamantengine5app_t10BindObjectEPNS_12gameobject_tE @33
    _ZN13adamantengine5app_t18CollisionDetectionERNS_9collision20CCollisionItemVectorE @34
    _ZN13adamantengine5app_t7ExecuteEv @35
    _ZN13adamantengine5app_t7OnEventER9SDL_Event @36
    _ZN13adamantengine5app_t8OnRenderEv @37
    _ZN13adamantengine5app_t8OnUpdateEv @38
    _ZN13adamantengine5app_t9IntializeEv @39
    _ZN13adamantengine5app_t9OnCleanupEv @40
    _ZN13adamantengine5app_tC1Ev @41
    _ZN13adamantengine5app_tC2Ev @42
    _ZN13adamantengine5app_tD1Ev @43
    _ZN13adamantengine5app_tD2Ev @44
    _ZN13adamantengine9collision14CCollisionItemC1ERKNS0_5CRectEj @45
    _ZN13adamantengine9collision14CCollisionItemC1ERKS1_ @46
    _ZN13adamantengine9collision14CCollisionItemD1Ev @47
    _ZN13adamantengine9collision14CSortCollisionclERKNS0_14CCollisionItemES4_ @48
    _ZN13adamantengine9collision20CCollisionItemVector4SortEv @49
    _ZN13adamantengine9collision20CCollisionItemVectorC1Ev @50
    _ZN13adamantengine9collision20CCollisionItemVectorD1Ev @51
    _ZN13adamantengine9collision5CRectC1ERK7pos3i_tRK7pos2i_t @52
    _ZN13adamantengine9collision5CRectC1ERKS1_ @53
    _ZN9__gnu_cxx13new_allocatorIN13adamantengine9collision14CCollisionItemEE10deallocateEPS3_j @54
    _ZN9__gnu_cxx13new_allocatorIN13adamantengine9collision14CCollisionItemEE7destroyEPS3_ @55
    _ZN9__gnu_cxx13new_allocatorIN13adamantengine9collision14CCollisionItemEE8allocateEjPKv @56
    _ZN9__gnu_cxx13new_allocatorIN13adamantengine9collision14CCollisionItemEE9constructEPS3_RKS3_ @57
    _ZN9__gnu_cxx13new_allocatorIN13adamantengine9collision14CCollisionItemEEC2Ev @58
    _ZN9__gnu_cxx13new_allocatorIN13adamantengine9collision14CCollisionItemEED2Ev @59
    _ZN9__gnu_cxx13new_allocatorIPN13adamantengine12gameobject_tEE10deallocateEPS3_j @60
    _ZN9__gnu_cxx13new_allocatorIPN13adamantengine12gameobject_tEE7destroyEPS3_ @61
    _ZN9__gnu_cxx13new_allocatorIPN13adamantengine12gameobject_tEE8allocateEjPKv @62
    _ZN9__gnu_cxx13new_allocatorIPN13adamantengine12gameobject_tEE9constructEPS3_RKS3_ @63
    _ZN9__gnu_cxx13new_allocatorIPN13adamantengine12gameobject_tEEC2Ev @64
    _ZN9__gnu_cxx13new_allocatorIPN13adamantengine12gameobject_tEED2Ev @65
    _ZN9__gnu_cxx17__normal_iteratorIPN13adamantengine9collision14CCollisionItemESt6vectorIS3_SaIS3_EEEC1ERKS4_ @66
    _ZN9__gnu_cxx17__normal_iteratorIPN13adamantengine9collision14CCollisionItemESt6vectorIS3_SaIS3_EEEmmEv @67
    _ZN9__gnu_cxx17__normal_iteratorIPN13adamantengine9collision14CCollisionItemESt6vectorIS3_SaIS3_EEEppEv @68
    _ZN9__gnu_cxx17__normal_iteratorIPPN13adamantengine12gameobject_tESt6vectorIS3_SaIS3_EEEC1ERKS4_ @69
    _ZN9__gnu_cxxeqIPN13adamantengine9collision14CCollisionItemESt6vectorIS3_SaIS3_EEEEbRKNS_17__normal_iteratorIT_T0_EESD_ @70
    _ZN9__gnu_cxxltIPN13adamantengine9collision14CCollisionItemESt6vectorIS3_SaIS3_EEEEbRKNS_17__normal_iteratorIT_T0_EESD_ @71
    _ZN9__gnu_cxxmiIPN13adamantengine9collision14CCollisionItemESt6vectorIS3_SaIS3_EEEENS_17__normal_iteratorIT_T0_E15difference_typeERKSB_SE_ @72
    _ZN9__gnu_cxxmiIPPN13adamantengine12gameobject_tESt6vectorIS3_SaIS3_EEEENS_17__normal_iteratorIT_T0_E15difference_typeERKSB_SE_ @73
    _ZN9__gnu_cxxneIPN13adamantengine9collision14CCollisionItemESt6vectorIS3_SaIS3_EEEEbRKNS_17__normal_iteratorIT_T0_EESD_ @74
    _ZNK9__gnu_cxx13new_allocatorIN13adamantengine9collision14CCollisionItemEE8max_sizeEv @75
    _ZNK9__gnu_cxx13new_allocatorIPN13adamantengine12gameobject_tEE8max_sizeEv @76
    _ZNK9__gnu_cxx17__normal_iteratorIPN13adamantengine9collision14CCollisionItemESt6vectorIS3_SaIS3_EEE4baseEv @77
    _ZNK9__gnu_cxx17__normal_iteratorIPN13adamantengine9collision14CCollisionItemESt6vectorIS3_SaIS3_EEEdeEv @78
    _ZNK9__gnu_cxx17__normal_iteratorIPN13adamantengine9collision14CCollisionItemESt6vectorIS3_SaIS3_EEEmiERKi @79
    _ZNK9__gnu_cxx17__normal_iteratorIPN13adamantengine9collision14CCollisionItemESt6vectorIS3_SaIS3_EEEplERKi @80
    _ZNK9__gnu_cxx17__normal_iteratorIPPN13adamantengine12gameobject_tESt6vectorIS3_SaIS3_EEE4baseEv @81
    _ZNK9__gnu_cxx17__normal_iteratorIPPN13adamantengine12gameobject_tESt6vectorIS3_SaIS3_EEEdeEv @82
    _ZNKSt12_Vector_baseIN13adamantengine9collision14CCollisionItemESaIS2_EE19_M_get_Tp_allocatorEv @83
    _ZNKSt12_Vector_baseIPN13adamantengine12gameobject_tESaIS2_EE19_M_get_Tp_allocatorEv @84
    _ZNKSt6vectorIN13adamantengine9collision14CCollisionItemESaIS2_EE12_M_check_lenEjPKc @85
    _ZNKSt6vectorIN13adamantengine9collision14CCollisionItemESaIS2_EE4sizeEv @86
    _ZNKSt6vectorIN13adamantengine9collision14CCollisionItemESaIS2_EE8max_sizeEv @87
    _ZNKSt6vectorIPN13adamantengine12gameobject_tESaIS2_EE12_M_check_lenEjPKc @88
    _ZNKSt6vectorIPN13adamantengine12gameobject_tESaIS2_EE4sizeEv @89
    _ZNKSt6vectorIPN13adamantengine12gameobject_tESaIS2_EE8max_sizeEv @90
    _ZNSaIN13adamantengine9collision14CCollisionItemEEC2Ev @91
    _ZNSaIN13adamantengine9collision14CCollisionItemEED2Ev @92
    _ZNSaIPN13adamantengine12gameobject_tEEC2Ev @93
    _ZNSaIPN13adamantengine12gameobject_tEED2Ev @94
    _ZNSt11__copy_moveILb0ELb1ESt26random_access_iterator_tagE8__copy_mIPN13adamantengine12gameobject_tEEEPT_PKS6_S9_S7_ @95
    _ZNSt11__iter_swapILb1EE9iter_swapIN9__gnu_cxx17__normal_iteratorIPN13adamantengine9collision14CCollisionItemESt6vectorIS6_SaIS6_EEEESB_EEvT_T0_ @96
    _ZNSt12_Destroy_auxILb1EE9__destroyIPN13adamantengine9collision14CCollisionItemEEEvT_S6_ @97
    _ZNSt12_Destroy_auxILb1EE9__destroyIPPN13adamantengine12gameobject_tEEEvT_S6_ @98
    _ZNSt12_Vector_baseIN13adamantengine9collision14CCollisionItemESaIS2_EE11_M_allocateEj @99
    _ZNSt12_Vector_baseIN13adamantengine9collision14CCollisionItemESaIS2_EE12_Vector_implC1Ev @100
    _ZNSt12_Vector_baseIN13adamantengine9collision14CCollisionItemESaIS2_EE12_Vector_implD1Ev @101
    _ZNSt12_Vector_baseIN13adamantengine9collision14CCollisionItemESaIS2_EE13_M_deallocateEPS2_j @102
    _ZNSt12_Vector_baseIN13adamantengine9collision14CCollisionItemESaIS2_EE19_M_get_Tp_allocatorEv @103
    _ZNSt12_Vector_baseIN13adamantengine9collision14CCollisionItemESaIS2_EEC2Ev @104
    _ZNSt12_Vector_baseIN13adamantengine9collision14CCollisionItemESaIS2_EED2Ev @105
    _ZNSt12_Vector_baseIPN13adamantengine12gameobject_tESaIS2_EE11_M_allocateEj @106
    _ZNSt12_Vector_baseIPN13adamantengine12gameobject_tESaIS2_EE12_Vector_implC1Ev @107
    _ZNSt12_Vector_baseIPN13adamantengine12gameobject_tESaIS2_EE12_Vector_implD1Ev @108
    _ZNSt12_Vector_baseIPN13adamantengine12gameobject_tESaIS2_EE13_M_deallocateEPS2_j @109
    _ZNSt12_Vector_baseIPN13adamantengine12gameobject_tESaIS2_EE19_M_get_Tp_allocatorEv @110
    _ZNSt12_Vector_baseIPN13adamantengine12gameobject_tESaIS2_EEC2Ev @111
    _ZNSt12_Vector_baseIPN13adamantengine12gameobject_tESaIS2_EED2Ev @112
    _ZNSt12__miter_baseIN9__gnu_cxx17__normal_iteratorIPN13adamantengine9collision14CCollisionItemESt6vectorIS4_SaIS4_EEEELb0EE3__bES9_ @113
    _ZNSt12__miter_baseIPN13adamantengine9collision14CCollisionItemELb0EE3__bES3_ @114
    _ZNSt12__miter_baseIPPN13adamantengine12gameobject_tELb0EE3__bES3_ @115
    _ZNSt12__niter_baseIN9__gnu_cxx17__normal_iteratorIPN13adamantengine9collision14CCollisionItemESt6vectorIS4_SaIS4_EEEELb1EE3__bES9_ @116
    _ZNSt12__niter_baseIPN13adamantengine9collision14CCollisionItemELb0EE3__bES3_ @117
    _ZNSt12__niter_baseIPPN13adamantengine12gameobject_tELb0EE3__bES3_ @118
    _ZNSt20__copy_move_backwardILb0ELb0ESt26random_access_iterator_tagE13__copy_move_bIPN13adamantengine9collision14CCollisionItemES6_EET0_T_S8_S7_ @119
    _ZNSt20__copy_move_backwardILb0ELb1ESt26random_access_iterator_tagE13__copy_move_bIPN13adamantengine12gameobject_tEEEPT_PKS6_S9_S7_ @120
    _ZNSt20__uninitialized_copyILb0EE18uninitialized_copyIPN13adamantengine9collision14CCollisionItemES5_EET0_T_S7_S6_ @121
    _ZNSt20__uninitialized_copyILb1EE18uninitialized_copyIPPN13adamantengine12gameobject_tES5_EET0_T_S7_S6_ @122
    _ZNSt6vectorIN13adamantengine9collision14CCollisionItemESaIS2_EE13_M_insert_auxEN9__gnu_cxx17__normal_iteratorIPS2_S4_EERKS2_ @123
    _ZNSt6vectorIN13adamantengine9collision14CCollisionItemESaIS2_EE3endEv @124
    _ZNSt6vectorIN13adamantengine9collision14CCollisionItemESaIS2_EE5beginEv @125
    _ZNSt6vectorIN13adamantengine9collision14CCollisionItemESaIS2_EE9push_backERKS2_ @126
    _ZNSt6vectorIN13adamantengine9collision14CCollisionItemESaIS2_EEC2Ev @127
    _ZNSt6vectorIN13adamantengine9collision14CCollisionItemESaIS2_EED2Ev @128
    _ZNSt6vectorIN13adamantengine9collision14CCollisionItemESaIS2_EEixEj @129
    _ZNSt6vectorIPN13adamantengine12gameobject_tESaIS2_EE13_M_insert_auxEN9__gnu_cxx17__normal_iteratorIPS2_S4_EERKS2_ @130
    _ZNSt6vectorIPN13adamantengine12gameobject_tESaIS2_EE3endEv @131
    _ZNSt6vectorIPN13adamantengine12gameobject_tESaIS2_EE4dataEv @132
    _ZNSt6vectorIPN13adamantengine12gameobject_tESaIS2_EE5beginEv @133
    _ZNSt6vectorIPN13adamantengine12gameobject_tESaIS2_EE9push_backERKS2_ @134
    _ZNSt6vectorIPN13adamantengine12gameobject_tESaIS2_EEC2Ev @135
    _ZNSt6vectorIPN13adamantengine12gameobject_tESaIS2_EED2Ev @136
    _ZSt10__pop_heapIN9__gnu_cxx17__normal_iteratorIPN13adamantengine9collision14CCollisionItemESt6vectorIS4_SaIS4_EEEENS3_14CSortCollisionEEvT_SB_SB_T0_ @137
    _ZSt11__push_heapIN9__gnu_cxx17__normal_iteratorIPN13adamantengine9collision14CCollisionItemESt6vectorIS4_SaIS4_EEEEiS4_NS3_14CSortCollisionEEvT_T0_SC_T1_T2_ @138
    _ZSt12partial_sortIN9__gnu_cxx17__normal_iteratorIPN13adamantengine9collision14CCollisionItemESt6vectorIS4_SaIS4_EEEENS3_14CSortCollisionEEvT_SB_SB_T0_ @139
    _ZSt13__adjust_heapIN9__gnu_cxx17__normal_iteratorIPN13adamantengine9collision14CCollisionItemESt6vectorIS4_SaIS4_EEEEiS4_NS3_14CSortCollisionEEvT_T0_SC_T1_T2_ @140
    _ZSt13__copy_move_aILb0EPPN13adamantengine12gameobject_tES3_ET1_T0_S5_S4_ @141
    _ZSt13__heap_selectIN9__gnu_cxx17__normal_iteratorIPN13adamantengine9collision14CCollisionItemESt6vectorIS4_SaIS4_EEEENS3_14CSortCollisionEEvT_SB_SB_T0_ @142
    _ZSt13copy_backwardIN9__gnu_cxx17__normal_iteratorIPN13adamantengine9collision14CCollisionItemESt6vectorIS4_SaIS4_EEEES9_ET0_T_SB_SA_ @143
    _ZSt13copy_backwardIPN13adamantengine9collision14CCollisionItemES3_ET0_T_S5_S4_ @144
    _ZSt13copy_backwardIPPN13adamantengine12gameobject_tES3_ET0_T_S5_S4_ @145
    _ZSt14__copy_move_a2ILb0EPPN13adamantengine12gameobject_tES3_ET1_T0_S5_S4_ @146
    _ZSt16__insertion_sortIN9__gnu_cxx17__normal_iteratorIPN13adamantengine9collision14CCollisionItemESt6vectorIS4_SaIS4_EEEENS3_14CSortCollisionEEvT_SB_T0_ @147
    _ZSt16__introsort_loopIN9__gnu_cxx17__normal_iteratorIPN13adamantengine9collision14CCollisionItemESt6vectorIS4_SaIS4_EEEEiNS3_14CSortCollisionEEvT_SB_T0_T1_ @148
    _ZSt18uninitialized_copyIPN13adamantengine9collision14CCollisionItemES3_ET0_T_S5_S4_ @149
    _ZSt18uninitialized_copyIPPN13adamantengine12gameobject_tES3_ET0_T_S5_S4_ @150
    _ZSt21__unguarded_partitionIN9__gnu_cxx17__normal_iteratorIPN13adamantengine9collision14CCollisionItemESt6vectorIS4_SaIS4_EEEES4_NS3_14CSortCollisionEET_SB_SB_T0_T1_ @151
    _ZSt22__copy_move_backward_aILb0EPN13adamantengine9collision14CCollisionItemES3_ET1_T0_S5_S4_ @152
    _ZSt22__copy_move_backward_aILb0EPPN13adamantengine12gameobject_tES3_ET1_T0_S5_S4_ @153
    _ZSt22__final_insertion_sortIN9__gnu_cxx17__normal_iteratorIPN13adamantengine9collision14CCollisionItemESt6vectorIS4_SaIS4_EEEENS3_14CSortCollisionEEvT_SB_T0_ @154
    _ZSt22__uninitialized_copy_aIPN13adamantengine9collision14CCollisionItemES3_S2_ET0_T_S5_S4_RSaIT1_E @155
    _ZSt22__uninitialized_copy_aIPPN13adamantengine12gameobject_tES3_S2_ET0_T_S5_S4_RSaIT1_E @156
    _ZSt22__uninitialized_move_aIPN13adamantengine9collision14CCollisionItemES3_SaIS2_EET0_T_S6_S5_RT1_ @157
    _ZSt22__uninitialized_move_aIPPN13adamantengine12gameobject_tES3_SaIS2_EET0_T_S6_S5_RT1_ @158
    _ZSt23__copy_move_backward_a2ILb0EN9__gnu_cxx17__normal_iteratorIPN13adamantengine9collision14CCollisionItemESt6vectorIS4_SaIS4_EEEES9_ET1_T0_SB_SA_ @159
    _ZSt23__copy_move_backward_a2ILb0EPN13adamantengine9collision14CCollisionItemES3_ET1_T0_S5_S4_ @160
    _ZSt23__copy_move_backward_a2ILb0EPPN13adamantengine12gameobject_tES3_ET1_T0_S5_S4_ @161
    _ZSt25__unguarded_linear_insertIN9__gnu_cxx17__normal_iteratorIPN13adamantengine9collision14CCollisionItemESt6vectorIS4_SaIS4_EEEES4_NS3_14CSortCollisionEEvT_T0_T1_ @162
    _ZSt26__unguarded_insertion_sortIN9__gnu_cxx17__normal_iteratorIPN13adamantengine9collision14CCollisionItemESt6vectorIS4_SaIS4_EEEENS3_14CSortCollisionEEvT_SB_T0_ @163
    _ZSt3maxIjERKT_S2_S2_ @164
    _ZSt4__lgi @165
    _ZSt4copyIPPN13adamantengine12gameobject_tES3_ET0_T_S5_S4_ @166
    _ZSt4sortIN9__gnu_cxx17__normal_iteratorIPN13adamantengine9collision14CCollisionItemESt6vectorIS4_SaIS4_EEEENS3_14CSortCollisionEEvT_SB_T0_ @167
    _ZSt4swapIN13adamantengine9collision14CCollisionItemEEvRT_S4_ @168
    _ZSt8_DestroyIPN13adamantengine9collision14CCollisionItemEEvT_S4_ @169
    _ZSt8_DestroyIPN13adamantengine9collision14CCollisionItemES2_EvT_S4_RSaIT0_E @170
    _ZSt8_DestroyIPPN13adamantengine12gameobject_tEEvT_S4_ @171
    _ZSt8_DestroyIPPN13adamantengine12gameobject_tES2_EvT_S4_RSaIT0_E @172
    _ZSt8__medianIN13adamantengine9collision14CCollisionItemENS1_14CSortCollisionEERKT_S6_S6_S6_T0_ @173
    _ZSt9iter_swapIN9__gnu_cxx17__normal_iteratorIPN13adamantengine9collision14CCollisionItemESt6vectorIS4_SaIS4_EEEES9_EvT_T0_ @174
    _ZSt9make_heapIN9__gnu_cxx17__normal_iteratorIPN13adamantengine9collision14CCollisionItemESt6vectorIS4_SaIS4_EEEENS3_14CSortCollisionEEvT_SB_T0_ @175
    _ZSt9sort_heapIN9__gnu_cxx17__normal_iteratorIPN13adamantengine9collision14CCollisionItemESt6vectorIS4_SaIS4_EEEENS3_14CSortCollisionEEvT_SB_T0_ @176
    _ZTIN13adamantengine12gameobject_tE @177 DATA
    _ZTSN13adamantengine12gameobject_tE @178 DATA
    _ZTVN13adamantengine12gameobject_tE @179 DATA
    _ZnwjPv @180
    amt_app_destroy @181
    amt_app_execute @182
    amt_app_init @183
    amt_app_object_bind @184
    amt_gobj_destroy @185
    amt_gobj_get_dimension @186
    amt_gobj_get_position @187
    amt_gobj_get_use_cleanup @188
    amt_gobj_get_use_collision @189
    amt_gobj_get_use_event @190
    amt_gobj_get_use_render @191
    amt_gobj_get_use_time @192
    amt_gobj_get_use_update @193
    amt_gobj_get_velocity @194
    amt_gobj_init @195
    amt_gobj_move_position @196
    amt_gobj_move_velocity @197
    amt_gobj_on_cleanup @198
    amt_gobj_on_collision @199
    amt_gobj_on_init @200
    amt_gobj_on_input @201
    amt_gobj_on_render @202
    amt_gobj_on_update @203
    amt_gobj_set_dimension @204
    amt_gobj_set_position @205
    amt_gobj_set_use_cleanup @206
    amt_gobj_set_use_collision @207
    amt_gobj_set_use_event @208
    amt_gobj_set_use_render @209
    amt_gobj_set_use_time @210
    amt_gobj_set_use_update @211
    amt_gobj_set_velocity @212
